ccopy_reg
_reconstructor
p0
(cgen_accounts
AccountGen
p1
c__builtin__
object
p2
Ntp3
Rp4
(dp5
S'order_id'
p6
I0
sS'order_book'
p7
(dp8
sS'num_accounts'
p9
I100
sS'accounts'
p10
(dp11
I0
g0
(cgen_accounts
Account
p12
g2
Ntp13
Rp14
(dp15
S'holdings'
p16
(dp17
S'GOOG'
p18
I12697418
sS'SK3WL'
p19
I13609627
sS'NRFIN'
p20
I5962175
sS'KPRCA'
p21
I2164075
sS'AAPL'
p22
I7107186
sS'OAK'
p23
I9147668
sS'DDTEK'
p24
L4294967295L
sS'PALM'
p25
I12454340
sS'CROMU'
p26
I13645664
sS'PIRATE'
p27
I9417541
sS'MAPLE'
p28
I10179641
ssS'symbols'
p29
(lp30
g22
ag18
ag20
ag26
ag21
ag27
ag24
ag23
ag28
ag25
ag19
asS'balance'
p31
F351872.0
sS'key'
p32
S'f97adfe8fa275092adf100d06900aed0'
p33
sS'idx'
p34
I0
sbsI1
g0
(g12
g2
Ntp35
Rp36
(dp37
g16
(dp38
g18
I12929200
sg19
I14026567
sg20
I16257266
sg21
I1501564
sg22
I6155379
sg23
I16460465
sg24
L4294967295L
sg25
I10590440
sg26
I4065689
sg27
I12342544
sg28
I13571855
ssg29
g30
sg31
F727435.0
sg32
S'11160ee476ee4d0e967bc19123306bb6'
p39
sg34
I1
sbsI2
g0
(g12
g2
Ntp40
Rp41
(dp42
g16
(dp43
g18
I9562695
sg19
L4294967295L
sg20
I8335444
sg21
I3689543
sg22
I11318699
sg23
I15206633
sg24
I6387741
sg25
I15315607
sg26
I15930862
sg27
I1207764
sg28
I6822811
ssg29
g30
sg31
F950234.0
sg32
S'0c5701cee646b0f3f87a0fe9db5a024b'
p44
sg34
I2
sbsI3
g0
(g12
g2
Ntp45
Rp46
(dp47
g16
(dp48
g18
I13230134
sg19
I6577574
sg20
I7860633
sg21
I6681541
sg22
I4580790
sg23
I5084198
sg24
L4294967295L
sg25
I7264059
sg26
I3060599
sg27
I4860182
sg28
I11247052
ssg29
g30
sg31
F179012.0
sg32
S'747bcc0e0f08aefb72860b6ec9c435cc'
p49
sg34
I3
sbsI4
g0
(g12
g2
Ntp50
Rp51
(dp52
g16
(dp53
g18
I15570477
sg19
I3432318
sg20
I12741618
sg21
I3172918
sg22
I7604478
sg23
I6492051
sg24
I6761905
sg25
L4294967295L
sg26
I9215083
sg27
I11751177
sg28
I6121063
ssg29
g30
sg31
F692642.0
sg32
S'e2cb96336c57f7b627157a85ed2703dd'
p54
sg34
I4
sbsI5
g0
(g12
g2
Ntp55
Rp56
(dp57
g16
(dp58
g18
I16767060
sg19
I3120718
sg20
I2222454
sg21
I15925974
sg22
I9007607
sg23
I3734544
sg24
L4294967295L
sg25
I9858813
sg26
I1140598
sg27
I14471737
sg28
I5019638
ssg29
g30
sg31
F285316.0
sg32
S'ccefe6f38a3b0dc38ad5b0522eb0e029'
p59
sg34
I5
sbsI6
g0
(g12
g2
Ntp60
Rp61
(dp62
g16
(dp63
g18
I6875083
sg19
L4294967295L
sg20
I10347720
sg21
I3731967
sg22
I13351890
sg23
I1050721
sg24
I1875851
sg25
I4305051
sg26
I16431291
sg27
I15860601
sg28
I6882954
ssg29
g30
sg31
F515174.0
sg32
S'1a0843b9fa65a1b261f2504c9e879f91'
p64
sg34
I6
sbsI7
g0
(g12
g2
Ntp65
Rp66
(dp67
g16
(dp68
g18
I16635781
sg19
I10306122
sg20
I7533549
sg21
I11826853
sg22
I16602355
sg23
I5836793
sg24
L4294967295L
sg25
I11905535
sg26
I12145804
sg27
I13676509
sg28
I10686102
ssg29
g30
sg31
F188301.0
sg32
S'43bf8cc93f259c6c468f6f49b02f8f86'
p69
sg34
I7
sbsI8
g0
(g12
g2
Ntp70
Rp71
(dp72
g16
(dp73
g18
I11880185
sg19
I5848188
sg20
I3691309
sg21
I14501760
sg22
I12428824
sg23
I4757678
sg24
I2714757
sg25
L4294967295L
sg26
I13154036
sg27
I1984745
sg28
I10440271
ssg29
g30
sg31
F965475.0
sg32
S'2d97f928e3f5147c39eddcd134675558'
p74
sg34
I8
sbsI9
g0
(g12
g2
Ntp75
Rp76
(dp77
g16
(dp78
g18
I2806291
sg19
I2472935
sg20
I10294218
sg21
I1667285
sg22
I12327449
sg23
I5585729
sg24
L4294967295L
sg25
I7133955
sg26
I3133595
sg27
I11437347
sg28
I2946842
ssg29
g30
sg31
F615249.0
sg32
S'18cdc243dc965537e08908cc7740f698'
p79
sg34
I9
sbsI10
g0
(g12
g2
Ntp80
Rp81
(dp82
g16
(dp83
g18
I15636185
sg19
I3810043
sg20
I1757482
sg21
I7349362
sg22
I2772326
sg23
I6657587
sg24
I4557832
sg25
L4294967295L
sg26
I1007084
sg27
I11768340
sg28
I14135472
ssg29
g30
sg31
F831992.0
sg32
S'824b37f224ed67d898cddd9144327522'
p84
sg34
I10
sbsI11
g0
(g12
g2
Ntp85
Rp86
(dp87
g16
(dp88
g18
I8960182
sg19
L4294967295L
sg20
I12269480
sg21
I11421740
sg22
I9016835
sg23
I11283725
sg24
I3155420
sg25
I14404065
sg26
I6893048
sg27
I13478505
sg28
I14703193
ssg29
g30
sg31
F985784.0
sg32
S'1a5bec5a98f816d4a9e2ed5ef764ec33'
p89
sg34
I11
sbsI12
g0
(g12
g2
Ntp90
Rp91
(dp92
g16
(dp93
g18
I11688733
sg19
I13295258
sg20
I15108918
sg21
I14035081
sg22
I16044264
sg23
I16391840
sg24
L4294967295L
sg25
I12502629
sg26
I12604407
sg27
I10121798
sg28
I9433220
ssg29
g30
sg31
F407811.0
sg32
S'ded4773c7efa13ca2f176735cf32f718'
p94
sg34
I12
sbsI13
g0
(g12
g2
Ntp95
Rp96
(dp97
g16
(dp98
g18
I11524495
sg19
I1168846
sg20
I3230299
sg21
I2193972
sg22
I8841774
sg23
I5088434
sg24
L4294967295L
sg25
I11436443
sg26
I6832703
sg27
I1615197
sg28
I14707618
ssg29
g30
sg31
F862651.0
sg32
S'57c02d796238b4a27093332f5757dd04'
p99
sg34
I13
sbsI14
g0
(g12
g2
Ntp100
Rp101
(dp102
g16
(dp103
g18
I11979219
sg19
L4294967295L
sg20
I4503091
sg21
I10393294
sg22
I13581203
sg23
I15458811
sg24
I1351048
sg25
I11574131
sg26
I9216316
sg27
I7530688
sg28
I1355327
ssg29
g30
sg31
F895654.0
sg32
S'4943cc5abda9e094a722a3127dbb9be3'
p104
sg34
I14
sbsI15
g0
(g12
g2
Ntp105
Rp106
(dp107
g16
(dp108
g18
I3608426
sg19
L4294967295L
sg20
I6898679
sg21
I3984264
sg22
I5892330
sg23
I16657794
sg24
I3241989
sg25
I1396362
sg26
I5049554
sg27
I14805136
sg28
I15810129
ssg29
g30
sg31
F740467.0
sg32
S'113ac07641cb7675d2dce9bf1ccf697e'
p109
sg34
I15
sbsI16
g0
(g12
g2
Ntp110
Rp111
(dp112
g16
(dp113
g18
I10472799
sg19
I11170086
sg20
I13261757
sg21
I4277534
sg22
I13749354
sg23
I5570437
sg24
L4294967295L
sg25
I10770226
sg26
I6944056
sg27
I10885405
sg28
I7438621
ssg29
g30
sg31
F712870.0
sg32
S'2306dd49e6a25060e8f8aece11173fdb'
p114
sg34
I16
sbsI17
g0
(g12
g2
Ntp115
Rp116
(dp117
g16
(dp118
g18
I1160878
sg19
I10548236
sg20
I1045249
sg21
I1080544
sg22
I14443389
sg23
I15469281
sg24
L4294967295L
sg25
I5223098
sg26
I9362632
sg27
I3557867
sg28
I3424844
ssg29
g30
sg31
F565871.0
sg32
S'c122c416d1415d0cb34e9dba6dc18c87'
p119
sg34
I17
sbsI18
g0
(g12
g2
Ntp120
Rp121
(dp122
g16
(dp123
g18
I10955106
sg19
I6616950
sg20
I12400890
sg21
I7731846
sg22
I10431312
sg23
I7502579
sg24
I9146814
sg25
L4294967295L
sg26
I5557237
sg27
I12472140
sg28
I10605366
ssg29
g30
sg31
F130899.0
sg32
S'f163ff8824fac3c605d53f37e5e614b9'
p124
sg34
I18
sbsI19
g0
(g12
g2
Ntp125
Rp126
(dp127
g16
(dp128
g18
I11682743
sg19
I12213053
sg20
I13150087
sg21
I1058239
sg22
I11739330
sg23
I8524322
sg24
L4294967295L
sg25
I6767717
sg26
I16382912
sg27
I7020133
sg28
I10949651
ssg29
g30
sg31
F525527.0
sg32
S'7fb252b79b9d4b1c36ac952e7c647394'
p129
sg34
I19
sbsI20
g0
(g12
g2
Ntp130
Rp131
(dp132
g16
(dp133
g18
I6361454
sg19
I10624090
sg20
I9729863
sg21
I5489966
sg22
I1644367
sg23
I13704543
sg24
I13296132
sg25
L4294967295L
sg26
I12534300
sg27
I3314227
sg28
I8091103
ssg29
g30
sg31
F195627.0
sg32
S'0376ec02f502a3ae1a776494f67ad2bd'
p134
sg34
I20
sbsI21
g0
(g12
g2
Ntp135
Rp136
(dp137
g16
(dp138
g18
I15116102
sg19
L4294967295L
sg20
I7163303
sg21
I2411851
sg22
I1282178
sg23
I3917628
sg24
I10812358
sg25
I15979282
sg26
I9688700
sg27
I7870488
sg28
I6164509
ssg29
g30
sg31
F30985.0
sg32
S'c35b360d25bbb643a064315b05cbb761'
p139
sg34
I21
sbsI22
g0
(g12
g2
Ntp140
Rp141
(dp142
g16
(dp143
g18
I4077423
sg19
L4294967295L
sg20
I9445055
sg21
I12406389
sg22
I13620598
sg23
I3267007
sg24
I4471790
sg25
I13305435
sg26
I4483329
sg27
I5539467
sg28
I16179529
ssg29
g30
sg31
F844713.0
sg32
S'ec3603d1a80fc0a9c584ee82bfc0be67'
p144
sg34
I22
sbsI23
g0
(g12
g2
Ntp145
Rp146
(dp147
g16
(dp148
g18
I15257167
sg19
I4086382
sg20
I10537523
sg21
I1924550
sg22
I7884583
sg23
I7048308
sg24
L4294967295L
sg25
I6235064
sg26
I2426566
sg27
I15526648
sg28
I6321120
ssg29
g30
sg31
F146629.0
sg32
S'1500be58a39ce15068039c989a4a9caf'
p149
sg34
I23
sbsI24
g0
(g12
g2
Ntp150
Rp151
(dp152
g16
(dp153
g18
I1065341
sg19
I11509928
sg20
I2120379
sg21
I8701824
sg22
I9024411
sg23
I16086740
sg24
L4294967295L
sg25
I11273924
sg26
I8791335
sg27
I8773724
sg28
I15272393
ssg29
g30
sg31
F101628.0
sg32
S'ea512ff327d39e37ddd7f5b169970469'
p154
sg34
I24
sbsI25
g0
(g12
g2
Ntp155
Rp156
(dp157
g16
(dp158
g18
I4140026
sg19
I1454170
sg20
I5145732
sg21
I9224234
sg22
I8689009
sg23
I16382073
sg24
L4294967295L
sg25
I6269156
sg26
I13240935
sg27
I14765083
sg28
I4798408
ssg29
g30
sg31
F488891.0
sg32
S'019fc054eac8fb229d6f79a7e33e7ce2'
p159
sg34
I25
sbsI26
g0
(g12
g2
Ntp160
Rp161
(dp162
g16
(dp163
g18
I2784024
sg19
I13549293
sg20
I2667817
sg21
I3492991
sg22
I3847288
sg23
I5313095
sg24
I6009818
sg25
L4294967295L
sg26
I8466828
sg27
I1507424
sg28
I14210083
ssg29
g30
sg31
F565619.0
sg32
S'5f8e90f5fb1f023a116032fc5aeba703'
p164
sg34
I26
sbsI27
g0
(g12
g2
Ntp165
Rp166
(dp167
g16
(dp168
g18
I8770132
sg19
L4294967295L
sg20
I7530052
sg21
I9274559
sg22
I16244414
sg23
I13591144
sg24
I12820445
sg25
I7494192
sg26
I3214744
sg27
I9732092
sg28
I5384540
ssg29
g30
sg31
F649800.0
sg32
S'd722a3ddd133b5170fb6fc5bfdacdcbc'
p169
sg34
I27
sbsI28
g0
(g12
g2
Ntp170
Rp171
(dp172
g16
(dp173
g18
I14101661
sg19
I9880693
sg20
I4824828
sg21
I6640789
sg22
I5985061
sg23
I12082003
sg24
L4294967295L
sg25
I11992980
sg26
I6663090
sg27
I15536331
sg28
I1693762
ssg29
g30
sg31
F185566.0
sg32
S'707bd2a4e33ca64c0bd14e8f77f1eea0'
p174
sg34
I28
sbsI29
g0
(g12
g2
Ntp175
Rp176
(dp177
g16
(dp178
g18
I2499199
sg19
I4406436
sg20
I14519628
sg21
I7419909
sg22
I10165991
sg23
I4372799
sg24
I6544820
sg25
L4294967295L
sg26
I16537451
sg27
I1716661
sg28
I5788997
ssg29
g30
sg31
F386190.0
sg32
S'eeacf644840aec168a972e22ab7ed436'
p179
sg34
I29
sbsI30
g0
(g12
g2
Ntp180
Rp181
(dp182
g16
(dp183
g18
I6611019
sg19
I12997587
sg20
I1091133
sg21
I15135738
sg22
I8348263
sg23
I4912346
sg24
I4385542
sg25
L4294967295L
sg26
I15877165
sg27
I15099072
sg28
I1874078
ssg29
g30
sg31
F405717.0
sg32
S'290b277185b2f6118f8748cd128b61ad'
p184
sg34
I30
sbsI31
g0
(g12
g2
Ntp185
Rp186
(dp187
g16
(dp188
g18
I16304977
sg19
L4294967295L
sg20
I5052570
sg21
I2877027
sg22
I4308592
sg23
I1627498
sg24
I3976235
sg25
I9268624
sg26
I5030385
sg27
I3795706
sg28
I5022202
ssg29
g30
sg31
F459429.0
sg32
S'51174b4b91682fa90c995b29c1d122cc'
p189
sg34
I31
sbsI32
g0
(g12
g2
Ntp190
Rp191
(dp192
g16
(dp193
g18
I16145286
sg19
I15701401
sg20
I7052302
sg21
I8553136
sg22
I14804565
sg23
I7324258
sg24
L4294967295L
sg25
I10434500
sg26
I14462869
sg27
I13583913
sg28
I10595086
ssg29
g30
sg31
F716827.0
sg32
S'241fe5c8bf8b3937860801e13759315b'
p194
sg34
I32
sbsI33
g0
(g12
g2
Ntp195
Rp196
(dp197
g16
(dp198
g18
I13202499
sg19
L4294967295L
sg20
I12766986
sg21
I12046145
sg22
I11015974
sg23
I16370510
sg24
I3796352
sg25
I13760909
sg26
I15326706
sg27
I1693165
sg28
I6146198
ssg29
g30
sg31
F952510.0
sg32
S'e68614df50cdb2377dcd34ab21d8e6c9'
p199
sg34
I33
sbsI34
g0
(g12
g2
Ntp200
Rp201
(dp202
g16
(dp203
g18
I14201410
sg19
I8511288
sg20
I1063994
sg21
I6268552
sg22
I15198355
sg23
I15873769
sg24
L4294967295L
sg25
I6637311
sg26
I16288512
sg27
I10642319
sg28
I7302469
ssg29
g30
sg31
F21789.0
sg32
S'819deb8ca551b6a9644f35750c37c231'
p204
sg34
I34
sbsI35
g0
(g12
g2
Ntp205
Rp206
(dp207
g16
(dp208
g18
I16050794
sg19
L4294967295L
sg20
I3856488
sg21
I4569063
sg22
I15567455
sg23
I2392423
sg24
I16498540
sg25
I5971020
sg26
I4331483
sg27
I15865335
sg28
I11754313
ssg29
g30
sg31
F345424.0
sg32
S'fdf1252401682267f80c76625403710d'
p209
sg34
I35
sbsI36
g0
(g12
g2
Ntp210
Rp211
(dp212
g16
(dp213
g18
I2479175
sg19
L4294967295L
sg20
I3822240
sg21
I11635880
sg22
I8990382
sg23
I1264252
sg24
I2171273
sg25
I9414321
sg26
I14730966
sg27
I7244390
sg28
I8947020
ssg29
g30
sg31
F462559.0
sg32
S'a8c9e2d05a8ef23cdc219d377d53e878'
p214
sg34
I36
sbsI37
g0
(g12
g2
Ntp215
Rp216
(dp217
g16
(dp218
g18
I15679785
sg19
I8646879
sg20
I8806663
sg21
I5198906
sg22
I12170318
sg23
I8386977
sg24
L4294967295L
sg25
I11035897
sg26
I7972249
sg27
I9495625
sg28
I14516338
ssg29
g30
sg31
F26141.0
sg32
S'aa5e73418a4d8ebcbf4242c08c78a415'
p219
sg34
I37
sbsI38
g0
(g12
g2
Ntp220
Rp221
(dp222
g16
(dp223
g18
I15969557
sg19
I13218669
sg20
I6567289
sg21
I13161176
sg22
I12798783
sg23
I4921208
sg24
L4294967295L
sg25
I6433043
sg26
I14405305
sg27
I2158462
sg28
I13782478
ssg29
g30
sg31
F730177.0
sg32
S'de153b1b106b6558dfa7260bc58525c0'
p224
sg34
I38
sbsI39
g0
(g12
g2
Ntp225
Rp226
(dp227
g16
(dp228
g18
I4860109
sg19
L4294967295L
sg20
I1571076
sg21
I13933799
sg22
I7004055
sg23
I12118951
sg24
I11810231
sg25
I14670828
sg26
I4298111
sg27
I3730513
sg28
I3767108
ssg29
g30
sg31
F89584.0
sg32
S'6cad7fb4bdc6971c41b568563e048c53'
p229
sg34
I39
sbsI40
g0
(g12
g2
Ntp230
Rp231
(dp232
g16
(dp233
g18
I4822938
sg19
I5772139
sg20
I7993294
sg21
I8806511
sg22
I9141741
sg23
I2945848
sg24
L4294967295L
sg25
I16722448
sg26
I12282640
sg27
I14585954
sg28
I9488914
ssg29
g30
sg31
F606271.0
sg32
S'b8809d33c0df937314815215820d9d65'
p234
sg34
I40
sbsI41
g0
(g12
g2
Ntp235
Rp236
(dp237
g16
(dp238
g18
I16777118
sg19
I2552391
sg20
I10080659
sg21
I8860583
sg22
I1356122
sg23
I4099862
sg24
I5354722
sg25
L4294967295L
sg26
I6737652
sg27
I6075612
sg28
I15594271
ssg29
g30
sg31
F496230.0
sg32
S'db5adad297a95000a7da8eb236d1cfe9'
p239
sg34
I41
sbsI42
g0
(g12
g2
Ntp240
Rp241
(dp242
g16
(dp243
g18
I13790057
sg19
I5159107
sg20
I5646950
sg21
I1164374
sg22
I2481370
sg23
I2834358
sg24
I8643482
sg25
L4294967295L
sg26
I1215390
sg27
I3940411
sg28
I9107762
ssg29
g30
sg31
F134737.0
sg32
S'424df7c2b9ef58790a33b52f67b5191f'
p244
sg34
I42
sbsI43
g0
(g12
g2
Ntp245
Rp246
(dp247
g16
(dp248
g18
I7702169
sg19
L4294967295L
sg20
I10362436
sg21
I15077270
sg22
I14129608
sg23
I14233452
sg24
I16448692
sg25
I9150686
sg26
I10499415
sg27
I2691104
sg28
I15821369
ssg29
g30
sg31
F61037.0
sg32
S'336cfe590bd1bcd823899b14493cf23c'
p249
sg34
I43
sbsI44
g0
(g12
g2
Ntp250
Rp251
(dp252
g16
(dp253
g18
I9713656
sg19
I4753509
sg20
I14443410
sg21
I7617582
sg22
I8641563
sg23
I11563330
sg24
I13496268
sg25
L4294967295L
sg26
I16040095
sg27
I5411080
sg28
I9992150
ssg29
g30
sg31
F389370.0
sg32
S'66e360b7b285f86c994233c5ab38bea5'
p254
sg34
I44
sbsI45
g0
(g12
g2
Ntp255
Rp256
(dp257
g16
(dp258
g18
I9704535
sg19
I14950974
sg20
I3479247
sg21
I8800218
sg22
I10062457
sg23
I12240112
sg24
L4294967295L
sg25
I5254871
sg26
I12010930
sg27
I5428519
sg28
I3168296
ssg29
g30
sg31
F250361.0
sg32
S'56ce86e58a14fc504cf6998b870aa804'
p259
sg34
I45
sbsI46
g0
(g12
g2
Ntp260
Rp261
(dp262
g16
(dp263
g18
I15197400
sg19
L4294967295L
sg20
I12293353
sg21
I7231493
sg22
I15038197
sg23
I7537714
sg24
I8976901
sg25
I5854179
sg26
I13599544
sg27
I6037412
sg28
I1147968
ssg29
g30
sg31
F48908.0
sg32
S'828606bf767986d4cc7b4ec8e9aff92a'
p264
sg34
I46
sbsI47
g0
(g12
g2
Ntp265
Rp266
(dp267
g16
(dp268
g18
I14545414
sg19
L4294967295L
sg20
I12402620
sg21
I4575737
sg22
I7790090
sg23
I3512099
sg24
I7019948
sg25
I4138803
sg26
I6069633
sg27
I11084242
sg28
I11015884
ssg29
g30
sg31
F910043.0
sg32
S'7179eff9bc72122b89beff120d2c8734'
p269
sg34
I47
sbsI48
g0
(g12
g2
Ntp270
Rp271
(dp272
g16
(dp273
g18
I4126452
sg19
L4294967295L
sg20
I11633903
sg21
I12098836
sg22
I13406575
sg23
I5137850
sg24
I13244385
sg25
I16412901
sg26
I6759125
sg27
I4359236
sg28
I6563685
ssg29
g30
sg31
F681630.0
sg32
S'6549b8e98be71bac2abd6996627bce4e'
p274
sg34
I48
sbsI49
g0
(g12
g2
Ntp275
Rp276
(dp277
g16
(dp278
g18
I7100466
sg19
I13433096
sg20
I10989497
sg21
I2311380
sg22
I7502571
sg23
I12389247
sg24
L4294967295L
sg25
I3104833
sg26
I1310083
sg27
I1396315
sg28
I16022222
ssg29
g30
sg31
F968739.0
sg32
S'acece5019f5ed9a0cacf2e0b1d431afd'
p279
sg34
I49
sbsI50
g0
(g12
g2
Ntp280
Rp281
(dp282
g16
(dp283
g18
I9521571
sg19
I9851935
sg20
I6779201
sg21
I8971014
sg22
I10194938
sg23
I9568752
sg24
L4294967295L
sg25
I12504729
sg26
I16567495
sg27
I12482248
sg28
I14402093
ssg29
g30
sg31
F987159.0
sg32
S'4d170b9c1c7031ef97163bbec3b80bbd'
p284
sg34
I50
sbsI51
g0
(g12
g2
Ntp285
Rp286
(dp287
g16
(dp288
g18
I8938918
sg19
I16422979
sg20
I9717293
sg21
I12927708
sg22
I4023909
sg23
I4624917
sg24
L4294967295L
sg25
I11195165
sg26
I3630205
sg27
I1666946
sg28
I4870922
ssg29
g30
sg31
F795609.0
sg32
S'9efb58f255f7ad220640a95f2a9c77f2'
p289
sg34
I51
sbsI52
g0
(g12
g2
Ntp290
Rp291
(dp292
g16
(dp293
g18
I1282578
sg19
I3522009
sg20
I14292547
sg21
I1776975
sg22
I6899032
sg23
I11253110
sg24
I13974089
sg25
L4294967295L
sg26
I9976917
sg27
I4318376
sg28
I11286875
ssg29
g30
sg31
F933789.0
sg32
S'9ef33ee3414ccd3b1eb43bc0b8ce49e2'
p294
sg34
I52
sbsI53
g0
(g12
g2
Ntp295
Rp296
(dp297
g16
(dp298
g18
I12585617
sg19
I7232735
sg20
I1775133
sg21
I15060652
sg22
I14787293
sg23
I5493411
sg24
I1941501
sg25
L4294967295L
sg26
I14717141
sg27
I11124581
sg28
I10364605
ssg29
g30
sg31
F538656.0
sg32
S'34d94e3a5578082d38538c3424b77270'
p299
sg34
I53
sbsI54
g0
(g12
g2
Ntp300
Rp301
(dp302
g16
(dp303
g18
I13862266
sg19
L4294967295L
sg20
I13113962
sg21
I16235160
sg22
I10907064
sg23
I5753074
sg24
I3400066
sg25
I8520428
sg26
I13315584
sg27
I1092891
sg28
I11637532
ssg29
g30
sg31
F234549.0
sg32
S'79b7fa5d363e03383f11ecdd92d97447'
p304
sg34
I54
sbsI55
g0
(g12
g2
Ntp305
Rp306
(dp307
g16
(dp308
g18
I8247773
sg19
I4520806
sg20
I12714003
sg21
I12930141
sg22
I16665840
sg23
I5912732
sg24
L4294967295L
sg25
I3599110
sg26
I9691210
sg27
I5729274
sg28
I9155966
ssg29
g30
sg31
F492490.0
sg32
S'9079765c700058627dce99bafd54432a'
p309
sg34
I55
sbsI56
g0
(g12
g2
Ntp310
Rp311
(dp312
g16
(dp313
g18
I2473636
sg19
I8030245
sg20
I2154361
sg21
I15066579
sg22
I11435178
sg23
I9445123
sg24
L4294967295L
sg25
I15336216
sg26
I2024765
sg27
I8916118
sg28
I14447678
ssg29
g30
sg31
F498241.0
sg32
S'ff1d7b03b27d0a6870d60f9d4795e92b'
p314
sg34
I56
sbsI57
g0
(g12
g2
Ntp315
Rp316
(dp317
g16
(dp318
g18
I9638472
sg19
I8460099
sg20
I16471372
sg21
I5887745
sg22
I6038510
sg23
I4216517
sg24
L4294967295L
sg25
I15256299
sg26
I13022481
sg27
I15319177
sg28
I13204310
ssg29
g30
sg31
F291754.0
sg32
S'edb3c285ddfc94bd1afcd62832eca795'
p319
sg34
I57
sbsI58
g0
(g12
g2
Ntp320
Rp321
(dp322
g16
(dp323
g18
I13859747
sg19
L4294967295L
sg20
I4166866
sg21
I6713079
sg22
I7908228
sg23
I15410039
sg24
I16148226
sg25
I1492497
sg26
I5704136
sg27
I4759536
sg28
I14976006
ssg29
g30
sg31
F900804.0
sg32
S'4ab3d2acc0ab50efa85ebf5c684bd530'
p324
sg34
I58
sbsI59
g0
(g12
g2
Ntp325
Rp326
(dp327
g16
(dp328
g18
I6094082
sg19
I2480789
sg20
I16055547
sg21
I7692201
sg22
I7394235
sg23
I12207680
sg24
L4294967295L
sg25
I15624481
sg26
I8729836
sg27
I7247667
sg28
I1864472
ssg29
g30
sg31
F817367.0
sg32
S'72558d6c2d653b9082933d372ef1b269'
p329
sg34
I59
sbsI60
g0
(g12
g2
Ntp330
Rp331
(dp332
g16
(dp333
g18
I6143374
sg19
I6514718
sg20
I8077271
sg21
I10153214
sg22
I1822598
sg23
I10901156
sg24
I9443404
sg25
L4294967295L
sg26
I9853321
sg27
I12226631
sg28
I12759456
ssg29
g30
sg31
F548826.0
sg32
S'a0faff8d8717d436c7e8e8f522ed1803'
p334
sg34
I60
sbsI61
g0
(g12
g2
Ntp335
Rp336
(dp337
g16
(dp338
g18
I15053460
sg19
I2844003
sg20
I13464004
sg21
I9305531
sg22
I10214556
sg23
I6983249
sg24
L4294967295L
sg25
I1987918
sg26
I11312556
sg27
I8102804
sg28
I16147711
ssg29
g30
sg31
F338763.0
sg32
S'2232fd538ff3aafb810a5f688046dd17'
p339
sg34
I61
sbsI62
g0
(g12
g2
Ntp340
Rp341
(dp342
g16
(dp343
g18
I2843061
sg19
L4294967295L
sg20
I5779362
sg21
I14292545
sg22
I15510736
sg23
I2856217
sg24
I11561860
sg25
I16580772
sg26
I11043724
sg27
I14155851
sg28
I11034770
ssg29
g30
sg31
F612511.0
sg32
S'6a6d931e932772b36d61ddcc41dbc221'
p344
sg34
I62
sbsI63
g0
(g12
g2
Ntp345
Rp346
(dp347
g16
(dp348
g18
I14609439
sg19
I10511271
sg20
I1852432
sg21
I10827303
sg22
I5241151
sg23
I2778639
sg24
L4294967295L
sg25
I13442907
sg26
I8417882
sg27
I11015539
sg28
I2447684
ssg29
g30
sg31
F248099.0
sg32
S'ec577dba35a82e1b26f613ece6c6840d'
p349
sg34
I63
sbsI64
g0
(g12
g2
Ntp350
Rp351
(dp352
g16
(dp353
g18
I6339394
sg19
I3673932
sg20
I2319024
sg21
I1867974
sg22
I2271985
sg23
I3711519
sg24
I1942460
sg25
L4294967295L
sg26
I7933304
sg27
I8379052
sg28
I9294378
ssg29
g30
sg31
F137621.0
sg32
S'2e63fb8baa93b26763b6ca1ef3c8585d'
p354
sg34
I64
sbsI65
g0
(g12
g2
Ntp355
Rp356
(dp357
g16
(dp358
g18
I2591017
sg19
I5478390
sg20
I3848650
sg21
I9231715
sg22
I9178149
sg23
I1417773
sg24
L4294967295L
sg25
I3150120
sg26
I3591382
sg27
I12120170
sg28
I8404641
ssg29
g30
sg31
F601985.0
sg32
S'005b04f8c3b18b9fa4faa9b02e7baf73'
p359
sg34
I65
sbsI66
g0
(g12
g2
Ntp360
Rp361
(dp362
g16
(dp363
g18
I3249878
sg19
I5677542
sg20
I2899829
sg21
I4525060
sg22
I5684300
sg23
I8285880
sg24
I3114578
sg25
L4294967295L
sg26
I3136496
sg27
I7436642
sg28
I9557924
ssg29
g30
sg31
F895600.0
sg32
S'569cadedd7e85c73126b13f6a1d227e3'
p364
sg34
I66
sbsI67
g0
(g12
g2
Ntp365
Rp366
(dp367
g16
(dp368
g18
I9943232
sg19
I10243760
sg20
I11205024
sg21
I5172102
sg22
I4061144
sg23
I12408111
sg24
L4294967295L
sg25
I14784684
sg26
I16070561
sg27
I4604413
sg28
I9280211
ssg29
g30
sg31
F813732.0
sg32
S'257a1c63f6715d7fa2cb06a5650afb9f'
p369
sg34
I67
sbsI68
g0
(g12
g2
Ntp370
Rp371
(dp372
g16
(dp373
g18
I10721570
sg19
L4294967295L
sg20
I1371650
sg21
I11461531
sg22
I3230262
sg23
I2427359
sg24
I1282727
sg25
I7075011
sg26
I2277629
sg27
I10275192
sg28
I4250081
ssg29
g30
sg31
F902792.0
sg32
S'03b5c42113686b52870b485d1817fd85'
p374
sg34
I68
sbsI69
g0
(g12
g2
Ntp375
Rp376
(dp377
g16
(dp378
g18
I11367300
sg19
L4294967295L
sg20
I9873926
sg21
I10169213
sg22
I4339652
sg23
I8465192
sg24
I1696409
sg25
I6159680
sg26
I4010481
sg27
I14469126
sg28
I15804958
ssg29
g30
sg31
F980637.0
sg32
S'7018e4ac5d1268d370b2ca79da5057a0'
p379
sg34
I69
sbsI70
g0
(g12
g2
Ntp380
Rp381
(dp382
g16
(dp383
g18
I6949049
sg19
L4294967295L
sg20
I2358002
sg21
I11345952
sg22
I12242159
sg23
I2239732
sg24
I5356987
sg25
I11822903
sg26
I1714463
sg27
I2558635
sg28
I8127364
ssg29
g30
sg31
F717722.0
sg32
S'cf643ea74cdf6b26939ee46b4625b9ea'
p384
sg34
I70
sbsI71
g0
(g12
g2
Ntp385
Rp386
(dp387
g16
(dp388
g18
I13736182
sg19
I16294150
sg20
I4851774
sg21
I2328528
sg22
I8097256
sg23
I12756603
sg24
L4294967295L
sg25
I10697697
sg26
I15419543
sg27
I4160055
sg28
I8095420
ssg29
g30
sg31
F370086.0
sg32
S'ac6bf456bd7a791853878fb217774250'
p389
sg34
I71
sbsI72
g0
(g12
g2
Ntp390
Rp391
(dp392
g16
(dp393
g18
I4351306
sg19
L4294967295L
sg20
I1464943
sg21
I1728588
sg22
I13875405
sg23
I11729595
sg24
I12116345
sg25
I9579724
sg26
I5214966
sg27
I12151145
sg28
I8362213
ssg29
g30
sg31
F924122.0
sg32
S'6500045faaaa7b12bef294b0f0af0a09'
p394
sg34
I72
sbsI73
g0
(g12
g2
Ntp395
Rp396
(dp397
g16
(dp398
g18
I10997557
sg19
L4294967295L
sg20
I3512052
sg21
I7866577
sg22
I8637268
sg23
I2921250
sg24
I15339788
sg25
I6429327
sg26
I5708918
sg27
I13740800
sg28
I7077120
ssg29
g30
sg31
F315510.0
sg32
S'c3385a46c4adb2cdcbb1e25a3927ccb8'
p399
sg34
I73
sbsI74
g0
(g12
g2
Ntp400
Rp401
(dp402
g16
(dp403
g18
I16146022
sg19
L4294967295L
sg20
I8084313
sg21
I10747493
sg22
I9331574
sg23
I14612865
sg24
I14456201
sg25
I15638824
sg26
I5114190
sg27
I15954376
sg28
I5308003
ssg29
g30
sg31
F807525.0
sg32
S'bb2404390204fe5d8beb9cd13a526e9c'
p404
sg34
I74
sbsI75
g0
(g12
g2
Ntp405
Rp406
(dp407
g16
(dp408
g18
I7113924
sg19
I4202627
sg20
I7302506
sg21
I14673068
sg22
I15710354
sg23
I7975668
sg24
I15730691
sg25
L4294967295L
sg26
I3410437
sg27
I8906117
sg28
I9414731
ssg29
g30
sg31
F755005.0
sg32
S'5ab2beaec063d59802bcad0c5cd39b6d'
p409
sg34
I75
sbsI76
g0
(g12
g2
Ntp410
Rp411
(dp412
g16
(dp413
g18
I14833268
sg19
I5009385
sg20
I16662223
sg21
I12544022
sg22
I1708631
sg23
I6890600
sg24
I6346253
sg25
L4294967295L
sg26
I2017784
sg27
I2516169
sg28
I15957197
ssg29
g30
sg31
F571891.0
sg32
S'1142c827f4f3cc46e08866d9e88eedd1'
p414
sg34
I76
sbsI77
g0
(g12
g2
Ntp415
Rp416
(dp417
g16
(dp418
g18
I16725064
sg19
I4292927
sg20
I11590977
sg21
I15983349
sg22
I12612147
sg23
I16268769
sg24
I12190990
sg25
L4294967295L
sg26
I16133556
sg27
I2124874
sg28
I14701799
ssg29
g30
sg31
F916740.0
sg32
S'4c37e154220c50c1077493851d1011ea'
p419
sg34
I77
sbsI78
g0
(g12
g2
Ntp420
Rp421
(dp422
g16
(dp423
g18
I2787457
sg19
I5750399
sg20
I16412843
sg21
I15409168
sg22
I6932703
sg23
I8020924
sg24
I2190798
sg25
L4294967295L
sg26
I10638180
sg27
I8047783
sg28
I14872850
ssg29
g30
sg31
F261422.0
sg32
S'd5a1152a053af0b1f9b387346866d5b2'
p424
sg34
I78
sbsI79
g0
(g12
g2
Ntp425
Rp426
(dp427
g16
(dp428
g18
I5712747
sg19
L4294967295L
sg20
I5038932
sg21
I16287904
sg22
I7591532
sg23
I1801423
sg24
I4942595
sg25
I6893675
sg26
I10679577
sg27
I8771892
sg28
I8812499
ssg29
g30
sg31
F672404.0
sg32
S'512457dc65f54d89dc8706d032b45443'
p429
sg34
I79
sbsI80
g0
(g12
g2
Ntp430
Rp431
(dp432
g16
(dp433
g18
I3494735
sg19
L4294967295L
sg20
I15660796
sg21
I7079911
sg22
I3192245
sg23
I8257291
sg24
I1102113
sg25
I9285787
sg26
I7689556
sg27
I11300844
sg28
I3570038
ssg29
g30
sg31
F837339.0
sg32
S'26127ebcfa0b1669559784ea1824d250'
p434
sg34
I80
sbsI81
g0
(g12
g2
Ntp435
Rp436
(dp437
g16
(dp438
g18
I3671913
sg19
I14140569
sg20
I1582316
sg21
I8350548
sg22
I15291318
sg23
I7800388
sg24
I7152120
sg25
L4294967295L
sg26
I5563149
sg27
I4914026
sg28
I1023698
ssg29
g30
sg31
F42721.0
sg32
S'f186934fb856ca0110151ad296da653f'
p439
sg34
I81
sbsI82
g0
(g12
g2
Ntp440
Rp441
(dp442
g16
(dp443
g18
I16486627
sg19
I6574802
sg20
I16413030
sg21
I14936637
sg22
I3672900
sg23
I13902760
sg24
I8258594
sg25
L4294967295L
sg26
I12641224
sg27
I8376158
sg28
I3275268
ssg29
g30
sg31
F423199.0
sg32
S'76910c570029849e0eaaa589b26e3759'
p444
sg34
I82
sbsI83
g0
(g12
g2
Ntp445
Rp446
(dp447
g16
(dp448
g18
I11912262
sg19
I6228655
sg20
I14793059
sg21
I7595741
sg22
I1758682
sg23
I2460156
sg24
L4294967295L
sg25
I10657454
sg26
I15520122
sg27
I1399931
sg28
I7799706
ssg29
g30
sg31
F774688.0
sg32
S'0ef281a265db8cc1a2f26adce8f09539'
p449
sg34
I83
sbsI84
g0
(g12
g2
Ntp450
Rp451
(dp452
g16
(dp453
g18
I14374714
sg19
L4294967295L
sg20
I6560926
sg21
I15669180
sg22
I12366596
sg23
I9024028
sg24
I7452913
sg25
I10582196
sg26
I2746395
sg27
I11199896
sg28
I8404624
ssg29
g30
sg31
F844939.0
sg32
S'c168709a6158047f520dd8f1442a92a0'
p454
sg34
I84
sbsI85
g0
(g12
g2
Ntp455
Rp456
(dp457
g16
(dp458
g18
I10457180
sg19
I8013075
sg20
I8314568
sg21
I7326279
sg22
I12665809
sg23
I2397706
sg24
L4294967295L
sg25
I5660432
sg26
I10432953
sg27
I12261688
sg28
I12782155
ssg29
g30
sg31
F413335.0
sg32
S'd2663cd7f26b91bf2eb322e6025d1df4'
p459
sg34
I85
sbsI86
g0
(g12
g2
Ntp460
Rp461
(dp462
g16
(dp463
g18
I9567690
sg19
L4294967295L
sg20
I15521683
sg21
I15940535
sg22
I3745123
sg23
I2678419
sg24
I1698777
sg25
I10671356
sg26
I1393160
sg27
I7388263
sg28
I8568913
ssg29
g30
sg31
F310964.0
sg32
S'7118b3ce1daf916b9499f69024791473'
p464
sg34
I86
sbsI87
g0
(g12
g2
Ntp465
Rp466
(dp467
g16
(dp468
g18
I16702215
sg19
I9128904
sg20
I5635369
sg21
I15665003
sg22
I11689635
sg23
I6718626
sg24
I14856793
sg25
L4294967295L
sg26
I13131543
sg27
I7093023
sg28
I12546139
ssg29
g30
sg31
F262982.0
sg32
S'cc190a7badd466d6e430b2966429bcb5'
p469
sg34
I87
sbsI88
g0
(g12
g2
Ntp470
Rp471
(dp472
g16
(dp473
g18
I8969934
sg19
L4294967295L
sg20
I2934940
sg21
I8910883
sg22
I3531946
sg23
I15537263
sg24
I2483600
sg25
I6217737
sg26
I16624633
sg27
I15306041
sg28
I5975488
ssg29
g30
sg31
F121236.0
sg32
S'799da893ad735b3a669e144d5aa67dab'
p474
sg34
I88
sbsI89
g0
(g12
g2
Ntp475
Rp476
(dp477
g16
(dp478
g18
I14401400
sg19
I2836599
sg20
I10175949
sg21
I2925119
sg22
I2570426
sg23
I8634400
sg24
I6959244
sg25
L4294967295L
sg26
I14143461
sg27
I12596979
sg28
I3518919
ssg29
g30
sg31
F323998.0
sg32
S'2932fb4aa9794a0caf3b263659419c26'
p479
sg34
I89
sbsI90
g0
(g12
g2
Ntp480
Rp481
(dp482
g16
(dp483
g18
I13688486
sg19
I10770343
sg20
I13479577
sg21
I3711162
sg22
I16061864
sg23
I10855270
sg24
I12291769
sg25
L4294967295L
sg26
I7482761
sg27
I10481084
sg28
I10474951
ssg29
g30
sg31
F118980.0
sg32
S'83796f2ba285775fc968c6061cd6a1c0'
p484
sg34
I90
sbsI91
g0
(g12
g2
Ntp485
Rp486
(dp487
g16
(dp488
g18
I11854170
sg19
I1002800
sg20
I9758578
sg21
I10599882
sg22
I14373358
sg23
I3491571
sg24
L4294967295L
sg25
I8742348
sg26
I10194246
sg27
I14896322
sg28
I15584914
ssg29
g30
sg31
F170693.0
sg32
S'0ab61be15e4ae36dd434cd6f104e2fc4'
p489
sg34
I91
sbsI92
g0
(g12
g2
Ntp490
Rp491
(dp492
g16
(dp493
g18
I2709273
sg19
L4294967295L
sg20
I6682562
sg21
I3447284
sg22
I9172244
sg23
I7673008
sg24
I7230331
sg25
I11705022
sg26
I9207167
sg27
I15335959
sg28
I6256057
ssg29
g30
sg31
F313740.0
sg32
S'5df66a4add8373aca93b06f6c982e0e3'
p494
sg34
I92
sbsI93
g0
(g12
g2
Ntp495
Rp496
(dp497
g16
(dp498
g18
I6853876
sg19
L4294967295L
sg20
I1481538
sg21
I13172296
sg22
I14457233
sg23
I9962927
sg24
I14147388
sg25
I12221322
sg26
I6393747
sg27
I16596042
sg28
I5943723
ssg29
g30
sg31
F332259.0
sg32
S'fbc29f5043a4e28c92312f32ff687511'
p499
sg34
I93
sbsI94
g0
(g12
g2
Ntp500
Rp501
(dp502
g16
(dp503
g18
I11970548
sg19
I8225578
sg20
I3727297
sg21
I6302378
sg22
I15614148
sg23
I14270557
sg24
I3765633
sg25
L4294967295L
sg26
I9647374
sg27
I5053676
sg28
I2402456
ssg29
g30
sg31
F727311.0
sg32
S'fcaf38921282e14608214823e0597e21'
p504
sg34
I94
sbsI95
g0
(g12
g2
Ntp505
Rp506
(dp507
g16
(dp508
g18
I12314570
sg19
L4294967295L
sg20
I15021239
sg21
I8283273
sg22
I5548686
sg23
I15807611
sg24
I16561606
sg25
I11124284
sg26
I13590917
sg27
I11378273
sg28
I16135094
ssg29
g30
sg31
F436214.0
sg32
S'cc5bac4d6c1e3f99b99a5792f19b15b4'
p509
sg34
I95
sbsI96
g0
(g12
g2
Ntp510
Rp511
(dp512
g16
(dp513
g18
I1003383
sg19
L4294967295L
sg20
I13581236
sg21
I15529685
sg22
I12596233
sg23
I10046791
sg24
I5229777
sg25
I13897105
sg26
I12115604
sg27
I14707702
sg28
I16634243
ssg29
g30
sg31
F958360.0
sg32
S'35f40bd506c8086a2569f2ca2dde1b29'
p514
sg34
I96
sbsI97
g0
(g12
g2
Ntp515
Rp516
(dp517
g16
(dp518
g18
I3508084
sg19
I8303761
sg20
I12053208
sg21
I1426317
sg22
I7446843
sg23
I15625017
sg24
L4294967295L
sg25
I8714698
sg26
I5724050
sg27
I14289022
sg28
I2516546
ssg29
g30
sg31
F46946.0
sg32
S'3a37a6af6981bfa12cfae817c2231447'
p519
sg34
I97
sbsI98
g0
(g12
g2
Ntp520
Rp521
(dp522
g16
(dp523
g18
I5255555
sg19
I8304671
sg20
I6669642
sg21
I3654473
sg22
I9432303
sg23
I6476300
sg24
I16520773
sg25
L4294967295L
sg26
I9705914
sg27
I11793019
sg28
I7968175
ssg29
g30
sg31
F235512.0
sg32
S'45629735ff7a20ca7c1aa375525be9e4'
p524
sg34
I98
sbsI99
g0
(g12
g2
Ntp525
Rp526
(dp527
g16
(dp528
g18
I10028966
sg19
I15284950
sg20
I9615739
sg21
I10343294
sg22
I5544000
sg23
I8899801
sg24
L4294967295L
sg25
I14290409
sg26
I9381942
sg27
I7062546
sg28
I15755308
ssg29
g30
sg31
F847132.0
sg32
S'd97236f062e48047aedd7957122c8238'
p529
sg34
I99
sbssb.